; Function Attrs: mustprogress nounwind uwtable
define internal void @"_ZNSt17_Function_handlerIFvRjEZN3spv10spirvbin_t8dceTypesEvE3$_0E9_M_invokeERKSt9_Any_dataS0_"(ptr nocapture noundef nonnull readonly align 8 dereferenceable(16) %0, ptr noundef nonnull align 4 dereferenceable(4) %1) #0 align 2 {
  %.val = load ptr, ptr %0, align 8
  %.val.val = load ptr, ptr %.val, align 8
  %3 = load i32, ptr %1, align 4
  %4 = lshr i32 %3, 6
  %.zext.i.i.i = zext nneg i32 %4 to i64
  %5 = getelementptr inbounds i64, ptr %.val.val, i64 %.zext.i.i.i
  %6 = and i32 %3, 63
  %7 = zext nneg i32 %6 to i64
  %8 = shl nuw i64 1, %7
  %9 = load i64, ptr %5, align 8
  %10 = and i64 %8, %9
  %.not.i.i.i = icmp eq i64 %10, 0
  br i1 %.not.i.i.i, label %"_ZSt10__invoke_rIvRZN3spv10spirvbin_t8dceTypesEvE3$_0JRjEENSt9enable_ifIX16is_invocable_r_vIT_T0_DpT1_EES6_E4typeEOS7_DpOS8_.exit", label %11

11:                                               ; preds = %2
  %12 = getelementptr inbounds i8, ptr %0, i64 8
  %.val2 = load ptr, ptr %12, align 8
  %13 = tail call noundef nonnull align 4 dereferenceable(4) ptr @_ZNSt8__detail9_Map_baseIjSt4pairIKjiESaIS3_ENS_10_Select1stESt8equal_toIjESt4hashIjENS_18_Mod_range_hashingENS_20_Default_ranged_hashENS_20_Prime_rehash_policyENS_17_Hashtable_traitsILb0ELb0ELb1EEELb1EEixERS2_(ptr noundef nonnull align 1 dereferenceable(1) %.val2, ptr noundef nonnull align 4 dereferenceable(4) %1)
  %14 = load i32, ptr %13, align 4
  %15 = add nsw i32 %14, 1
  store i32 %15, ptr %13, align 4
  br label %"_ZSt10__invoke_rIvRZN3spv10spirvbin_t8dceTypesEvE3$_0JRjEENSt9enable_ifIX16is_invocable_r_vIT_T0_DpT1_EES6_E4typeEOS7_DpOS8_.exit"

"_ZSt10__invoke_rIvRZN3spv10spirvbin_t8dceTypesEvE3$_0JRjEENSt9enable_ifIX16is_invocable_r_vIT_T0_DpT1_EES6_E4typeEOS7_DpOS8_.exit": ; preds = %2, %11
  ret void
}